; Function Attrs: mustprogress uwtable
define void @grpc_auth_metadata_context_reset(ptr noundef captures(none) %0) local_unnamed_addr #3 {
  %2 = load ptr, ptr %0, align 8, !tbaa !3
  %.not = icmp eq ptr %2, null
  br i1 %.not, label %4, label %3

3:                                                ; preds = %1
  tail call void @gpr_free(ptr noundef nonnull %2)
  store ptr null, ptr %0, align 8, !tbaa !3
  br label %4

4:                                                ; preds = %3, %1
  %5 = getelementptr inbounds nuw i8, ptr %0, i64 8
  %6 = load ptr, ptr %5, align 8, !tbaa !10
  %.not11 = icmp eq ptr %6, null
  br i1 %.not11, label %8, label %7

7:                                                ; preds = %4
  tail call void @gpr_free(ptr noundef nonnull %6)
  store ptr null, ptr %5, align 8, !tbaa !10
  br label %8

8:                                                ; preds = %7, %4
  %9 = getelementptr inbounds nuw i8, ptr %0, i64 16
  %10 = load ptr, ptr %9, align 8, !tbaa !11
  %.not12 = icmp eq ptr %10, null
  br i1 %.not12, label %15, label %11

11:                                               ; preds = %8
  %12 = atomicrmw sub ptr %10, i64 1 acq_rel, align 8
  %13 = icmp eq i64 %12, 1
  br i1 %13, label %14, label %_ZNK9grpc_core10RefCountedI17grpc_auth_contextNS_22NonPolymorphicRefCountENS_11UnrefDeleteEE5UnrefERKNS_13DebugLocationEPKc.exit, !prof !12

14:                                               ; preds = %11
  tail call void @_ZN17grpc_auth_contextD2Ev(ptr noundef nonnull align 8 dereferenceable(64) %10) #33
  tail call void @_ZdlPvm(ptr noundef nonnull align 8 dereferenceable(8) %10, i64 noundef 64) #34
  br label %_ZNK9grpc_core10RefCountedI17grpc_auth_contextNS_22NonPolymorphicRefCountENS_11UnrefDeleteEE5UnrefERKNS_13DebugLocationEPKc.exit

_ZNK9grpc_core10RefCountedI17grpc_auth_contextNS_22NonPolymorphicRefCountENS_11UnrefDeleteEE5UnrefERKNS_13DebugLocationEPKc.exit: ; preds = %11, %14
  store ptr null, ptr %9, align 8, !tbaa !11
  br label %15

15:                                               ; preds = %_ZNK9grpc_core10RefCountedI17grpc_auth_contextNS_22NonPolymorphicRefCountENS_11UnrefDeleteEE5UnrefERKNS_13DebugLocationEPKc.exit, %8
  ret void
}